(dp0
Vchkfeedht
p1
(dp2
S'curidx'
p3
I0
sS'partsrch'
p4
VBME
p5
sS'feedsrch'
p6
V8mmTop_06
p7
ssVfdrmap
p8
(dp9
S'filename'
p10
V/tmp/ho3.svg
p11
sS'projname'
p12
VMy Test AutoFeed
p13
ssVcrossfeeds
p14
(dp15
Vsmallfeed
p16
F84.0
ssS'projman'
p17
(dp18
Vpkgdesccsv
p19
Vdata/package_desc.csv
p20
sVfeeddesccsv
p21
Vdata/feed_desc.csv
p22
sVlastbom
p23
V/tmp/bom.csv
p24
ss.